target datalayout = "e-m:e-p270:32:32-p271:32:32-p272:64:64-i64:64-i128:128-f80:128-n8:16:32:64-S128"
target triple = "x86_64-pc-linux-gnu"

@H5P_CLS_FILE_CREATE_ID_g = external global i64, align 8
@H5_libinit_g = external global i8, align 1
@H5_libterm_g = external global i8, align 1
@.str.1 = private unnamed_addr constant [101 x i8] c"generated/home/dtcxzyw/WorkSpace/Projects/compilers/llvm-opt-benchmark/bench/hdf5/hdf5/src/H5Pfcpl.c\00", align 1
@H5E_FUNC_g = external global i64, align 8
@H5E_CANTINIT_g = external global i64, align 8
@.str.2 = private unnamed_addr constant [30 x i8] c"library initialization failed\00", align 1
@H5E_CANTSET_g = external global i64, align 8
@.str.3 = private unnamed_addr constant [22 x i8] c"can't set API context\00", align 1
@H5E_ID_g = external global i64, align 8
@H5E_BADID_g = external global i64, align 8
@.str.6 = private unnamed_addr constant [25 x i8] c"can't find object for ID\00", align 1
@H5E_PLIST_g = external global i64, align 8
@H5E_CANTGET_g = external global i64, align 8
@.str.51 = private unnamed_addr constant [20 x i8] c"file_space_strategy\00", align 1
@.str.53 = private unnamed_addr constant [19 x i8] c"free_space_persist\00", align 1
@.str.55 = private unnamed_addr constant [21 x i8] c"free_space_threshold\00", align 1
@__func__.H5Pget_file_space_strategy = private unnamed_addr constant [27 x i8] c"H5Pget_file_space_strategy\00", align 1
@.str.57 = private unnamed_addr constant [30 x i8] c"can't get file space strategy\00", align 1
@.str.58 = private unnamed_addr constant [39 x i8] c"can't get free-space persisting status\00", align 1
@.str.59 = private unnamed_addr constant [31 x i8] c"can't get free-space threshold\00", align 1

; Function Attrs: nounwind uwtable
define i32 @H5Pget_file_space_strategy(i64 noundef %0, ptr noundef %1, ptr noundef %2, ptr noundef %3) #0 {
  %5 = alloca i64, align 8
  %6 = alloca ptr, align 8
  %7 = alloca ptr, align 8
  %8 = alloca ptr, align 8
  %9 = alloca ptr, align 8
  %10 = alloca i32, align 4
  %11 = alloca i8, align 1
  %12 = alloca i8, align 1
  store i64 %0, ptr %5, align 8
  store ptr %1, ptr %6, align 8
  store ptr %2, ptr %7, align 8
  store ptr %3, ptr %8, align 8
  store i32 0, ptr %10, align 4
  store i8 0, ptr %11, align 1
  store i8 0, ptr %12, align 1
  %13 = load i8, ptr @H5_libinit_g, align 1
  %14 = trunc i8 %13 to i1
  br i1 %14, label %19, label %15

15:                                               ; preds = %4
  %16 = load i8, ptr @H5_libterm_g, align 1
  %17 = trunc i8 %16 to i1
  %18 = xor i1 %17, true
  br label %19

19:                                               ; preds = %15, %4
  %20 = phi i1 [ false, %4 ], [ %18, %15 ]
  %21 = xor i1 %20, true
  %22 = xor i1 %21, true
  %23 = zext i1 %22 to i32
  %24 = sext i32 %23 to i64
  %25 = icmp ne i64 %24, 0
  br i1 %25, label %26, label %50

26:                                               ; preds = %19
  %27 = call i32 @H5_init_library()
  %28 = icmp slt i32 %27, 0
  %29 = xor i1 %28, true
  %30 = xor i1 %29, true
  %31 = zext i1 %30 to i32
  %32 = sext i32 %31 to i64
  %33 = icmp ne i64 %32, 0
  br i1 %33, label %34, label %49

34:                                               ; preds = %26
  br label %35

35:                                               ; preds = %34
  br label %36

36:                                               ; preds = %35
  br label %37

37:                                               ; preds = %36
  %38 = load i64, ptr @H5E_FUNC_g, align 8
  %39 = load i64, ptr @H5E_CANTINIT_g, align 8
  %40 = call i32 (ptr, ptr, i32, i64, i64, ptr, ...) @H5E_printf_stack(ptr noundef @.str.1, ptr noundef @__func__.H5Pget_file_space_strategy, i32 noundef 1229, i64 noundef %38, i64 noundef %39, ptr noundef @.str.2)
  br label %41

41:                                               ; preds = %37
  store i8 1, ptr %12, align 1
  %42 = load i8, ptr %12, align 1
  %43 = trunc i8 %42 to i1
  %44 = zext i1 %43 to i8
  store i8 %44, ptr %12, align 1
  br label %45

45:                                               ; preds = %41
  br label %46

46:                                               ; preds = %45
  store i32 -1, ptr %10, align 4
  br label %168

47:                                               ; No predecessors!
  br label %48

48:                                               ; preds = %47
  br label %49

49:                                               ; preds = %48, %26
  br label %50

50:                                               ; preds = %49, %19
  %51 = call i32 @H5CX_push()
  %52 = icmp slt i32 %51, 0
  %53 = xor i1 %52, true
  %54 = xor i1 %53, true
  %55 = zext i1 %54 to i32
  %56 = sext i32 %55 to i64
  %57 = icmp ne i64 %56, 0
  br i1 %57, label %58, label %73

58:                                               ; preds = %50
  br label %59

59:                                               ; preds = %58
  br label %60

60:                                               ; preds = %59
  br label %61

61:                                               ; preds = %60
  %62 = load i64, ptr @H5E_FUNC_g, align 8
  %63 = load i64, ptr @H5E_CANTSET_g, align 8
  %64 = call i32 (ptr, ptr, i32, i64, i64, ptr, ...) @H5E_printf_stack(ptr noundef @.str.1, ptr noundef @__func__.H5Pget_file_space_strategy, i32 noundef 1229, i64 noundef %62, i64 noundef %63, ptr noundef @.str.3)
  br label %65

65:                                               ; preds = %61
  store i8 1, ptr %12, align 1
  %66 = load i8, ptr %12, align 1
  %67 = trunc i8 %66 to i1
  %68 = zext i1 %67 to i8
  store i8 %68, ptr %12, align 1
  br label %69

69:                                               ; preds = %65
  br label %70

70:                                               ; preds = %69
  store i32 -1, ptr %10, align 4
  br label %168

71:                                               ; No predecessors!
  br label %72

72:                                               ; preds = %71
  br label %74

73:                                               ; preds = %50
  store i8 1, ptr %11, align 1
  br label %74

74:                                               ; preds = %73, %72
  %75 = call i32 @H5E_clear_stack()
  %76 = load i64, ptr %5, align 8
  %77 = load i64, ptr @H5P_CLS_FILE_CREATE_ID_g, align 8
  %78 = call ptr @H5P_object_verify(i64 noundef %76, i64 noundef %77)
  store ptr %78, ptr %9, align 8
  %79 = icmp eq ptr null, %78
  br i1 %79, label %80, label %95

80:                                               ; preds = %74
  br label %81

81:                                               ; preds = %80
  br label %82

82:                                               ; preds = %81
  br label %83

83:                                               ; preds = %82
  %84 = load i64, ptr @H5E_ID_g, align 8
  %85 = load i64, ptr @H5E_BADID_g, align 8
  %86 = call i32 (ptr, ptr, i32, i64, i64, ptr, ...) @H5E_printf_stack(ptr noundef @.str.1, ptr noundef @__func__.H5Pget_file_space_strategy, i32 noundef 1233, i64 noundef %84, i64 noundef %85, ptr noundef @.str.6)
  br label %87

87:                                               ; preds = %83
  store i8 1, ptr %12, align 1
  %88 = load i8, ptr %12, align 1
  %89 = trunc i8 %88 to i1
  %90 = zext i1 %89 to i8
  store i8 %90, ptr %12, align 1
  br label %91

91:                                               ; preds = %87
  br label %92

92:                                               ; preds = %91
  store i32 -1, ptr %10, align 4
  br label %168

93:                                               ; No predecessors!
  br label %94

94:                                               ; preds = %93
  br label %95

95:                                               ; preds = %94, %74
  %96 = load ptr, ptr %6, align 8
  %97 = icmp ne ptr %96, null
  br i1 %97, label %98, label %119

98:                                               ; preds = %95
  %99 = load ptr, ptr %9, align 8
  %100 = load ptr, ptr %6, align 8
  %101 = call i32 @H5P_get(ptr noundef %99, ptr noundef @.str.51, ptr noundef %100)
  %102 = icmp slt i32 %101, 0
  br i1 %102, label %103, label %118

103:                                              ; preds = %98
  br label %104

104:                                              ; preds = %103
  br label %105

105:                                              ; preds = %104
  br label %106

106:                                              ; preds = %105
  %107 = load i64, ptr @H5E_PLIST_g, align 8
  %108 = load i64, ptr @H5E_CANTGET_g, align 8
  %109 = call i32 (ptr, ptr, i32, i64, i64, ptr, ...) @H5E_printf_stack(ptr noundef @.str.1, ptr noundef @__func__.H5Pget_file_space_strategy, i32 noundef 1238, i64 noundef %107, i64 noundef %108, ptr noundef @.str.57)
  br label %110

110:                                              ; preds = %106
  store i8 1, ptr %12, align 1
  %111 = load i8, ptr %12, align 1
  %112 = trunc i8 %111 to i1
  %113 = zext i1 %112 to i8
  store i8 %113, ptr %12, align 1
  br label %114

114:                                              ; preds = %110
  br label %115

115:                                              ; preds = %114
  store i32 -1, ptr %10, align 4
  br label %168

116:                                              ; No predecessors!
  br label %117

117:                                              ; preds = %116
  br label %118

118:                                              ; preds = %117, %98
  br label %119

119:                                              ; preds = %118, %95
  %120 = load ptr, ptr %7, align 8
  %121 = icmp ne ptr %120, null
  br i1 %121, label %122, label %143

122:                                              ; preds = %119
  %123 = load ptr, ptr %9, align 8
  %124 = load ptr, ptr %7, align 8
  %125 = call i32 @H5P_get(ptr noundef %123, ptr noundef @.str.53, ptr noundef %124)
  %126 = icmp slt i32 %125, 0
  br i1 %126, label %127, label %142

127:                                              ; preds = %122
  br label %128

128:                                              ; preds = %127
  br label %129

129:                                              ; preds = %128
  br label %130

130:                                              ; preds = %129
  %131 = load i64, ptr @H5E_PLIST_g, align 8
  %132 = load i64, ptr @H5E_CANTGET_g, align 8
  %133 = call i32 (ptr, ptr, i32, i64, i64, ptr, ...) @H5E_printf_stack(ptr noundef @.str.1, ptr noundef @__func__.H5Pget_file_space_strategy, i32 noundef 1241, i64 noundef %131, i64 noundef %132, ptr noundef @.str.58)
  br label %134

134:                                              ; preds = %130
  store i8 1, ptr %12, align 1
  %135 = load i8, ptr %12, align 1
  %136 = trunc i8 %135 to i1
  %137 = zext i1 %136 to i8
  store i8 %137, ptr %12, align 1
  br label %138

138:                                              ; preds = %134
  br label %139

139:                                              ; preds = %138
  store i32 -1, ptr %10, align 4
  br label %168

140:                                              ; No predecessors!
  br label %141

141:                                              ; preds = %140
  br label %142

142:                                              ; preds = %141, %122
  br label %143

143:                                              ; preds = %142, %119
  %144 = load ptr, ptr %8, align 8
  %145 = icmp ne ptr %144, null
  br i1 %145, label %146, label %167

146:                                              ; preds = %143
  %147 = load ptr, ptr %9, align 8
  %148 = load ptr, ptr %8, align 8
  %149 = call i32 @H5P_get(ptr noundef %147, ptr noundef @.str.55, ptr noundef %148)
  %150 = icmp slt i32 %149, 0
  br i1 %150, label %151, label %166

151:                                              ; preds = %146
  br label %152

152:                                              ; preds = %151
  br label %153

153:                                              ; preds = %152
  br label %154

154:                                              ; preds = %153
  %155 = load i64, ptr @H5E_PLIST_g, align 8
  %156 = load i64, ptr @H5E_CANTGET_g, align 8
  %157 = call i32 (ptr, ptr, i32, i64, i64, ptr, ...) @H5E_printf_stack(ptr noundef @.str.1, ptr noundef @__func__.H5Pget_file_space_strategy, i32 noundef 1244, i64 noundef %155, i64 noundef %156, ptr noundef @.str.59)
  br label %158

158:                                              ; preds = %154
  store i8 1, ptr %12, align 1
  %159 = load i8, ptr %12, align 1
  %160 = trunc i8 %159 to i1
  %161 = zext i1 %160 to i8
  store i8 %161, ptr %12, align 1
  br label %162

162:                                              ; preds = %158
  br label %163

163:                                              ; preds = %162
  store i32 -1, ptr %10, align 4
  br label %168

164:                                              ; No predecessors!
  br label %165

165:                                              ; preds = %164
  br label %166

166:                                              ; preds = %165, %146
  br label %167

167:                                              ; preds = %166, %143
  br label %168

168:                                              ; preds = %167, %163, %139, %115, %92, %70, %46
  %169 = load i8, ptr %11, align 1
  %170 = trunc i8 %169 to i1
  %171 = xor i1 %170, true
  %172 = xor i1 %171, true
  %173 = zext i1 %172 to i32
  %174 = sext i32 %173 to i64
  %175 = icmp ne i64 %174, 0
  br i1 %175, label %176, label %178

176:                                              ; preds = %168
  %177 = call i32 @H5CX_pop(i1 noundef zeroext true)
  store i8 0, ptr %11, align 1
  br label %178

178:                                              ; preds = %176, %168
  %179 = load i8, ptr %12, align 1
  %180 = trunc i8 %179 to i1
  %181 = xor i1 %180, true
  %182 = xor i1 %181, true
  %183 = zext i1 %182 to i32
  %184 = sext i32 %183 to i64
  %185 = icmp ne i64 %184, 0
  br i1 %185, label %186, label %188

186:                                              ; preds = %178
  %187 = call i32 @H5E_dump_api_stack()
  br label %188

188:                                              ; preds = %186, %178
  %189 = load i32, ptr %10, align 4
  ret i32 %189
}