; Function Attrs: nounwind uwtable
define range(i32 -1, 1) i32 @H5Pget_file_space_strategy(i64 noundef %0, ptr noundef %1, ptr noundef %2, ptr noundef %3) local_unnamed_addr #0 {
  %5 = load i8, ptr @H5_libinit_g, align 1
  %6 = trunc i8 %5 to i1
  %7 = load i8, ptr @H5_libterm_g, align 1
  %8 = trunc i8 %7 to i1
  %9 = select i1 %6, i1 true, i1 %8
  br i1 %9, label %17, label %10

10:                                               ; preds = %4
  %11 = tail call i32 @H5_init_library() #6
  %12 = icmp slt i32 %11, 0
  br i1 %12, label %13, label %17

13:                                               ; preds = %10
  %14 = load i64, ptr @H5E_FUNC_g, align 8
  %15 = load i64, ptr @H5E_CANTINIT_g, align 8
  %16 = tail call i32 (ptr, ptr, i32, i64, i64, ptr, ...) @H5E_printf_stack(ptr noundef nonnull @.str.1, ptr noundef nonnull @__func__.H5Pget_file_space_strategy, i32 noundef 1229, i64 noundef %14, i64 noundef %15, ptr noundef nonnull @.str.2) #6
  br label %.thread34

17:                                               ; preds = %10, %4
  %18 = tail call i32 @H5CX_push() #6
  %19 = icmp slt i32 %18, 0
  br i1 %19, label %20, label %24

20:                                               ; preds = %17
  %21 = load i64, ptr @H5E_FUNC_g, align 8
  %22 = load i64, ptr @H5E_CANTSET_g, align 8
  %23 = tail call i32 (ptr, ptr, i32, i64, i64, ptr, ...) @H5E_printf_stack(ptr noundef nonnull @.str.1, ptr noundef nonnull @__func__.H5Pget_file_space_strategy, i32 noundef 1229, i64 noundef %21, i64 noundef %22, ptr noundef nonnull @.str.3) #6
  br label %.thread34

24:                                               ; preds = %17
  %25 = tail call i32 @H5E_clear_stack() #6
  %26 = load i64, ptr @H5P_CLS_FILE_CREATE_ID_g, align 8
  %27 = tail call ptr @H5P_object_verify(i64 noundef %0, i64 noundef %26) #6
  %28 = icmp eq ptr %27, null
  br i1 %28, label %29, label %33

29:                                               ; preds = %24
  %30 = load i64, ptr @H5E_ID_g, align 8
  %31 = load i64, ptr @H5E_BADID_g, align 8
  %32 = tail call i32 (ptr, ptr, i32, i64, i64, ptr, ...) @H5E_printf_stack(ptr noundef nonnull @.str.1, ptr noundef nonnull @__func__.H5Pget_file_space_strategy, i32 noundef 1233, i64 noundef %30, i64 noundef %31, ptr noundef nonnull @.str.6) #6
  br label %.thread40

33:                                               ; preds = %24
  %.not = icmp eq ptr %1, null
  br i1 %.not, label %41, label %34

34:                                               ; preds = %33
  %35 = tail call i32 @H5P_get(ptr noundef nonnull %27, ptr noundef nonnull @.str.51, ptr noundef nonnull %1) #6
  %36 = icmp slt i32 %35, 0
  br i1 %36, label %37, label %41

37:                                               ; preds = %34
  %38 = load i64, ptr @H5E_PLIST_g, align 8
  %39 = load i64, ptr @H5E_CANTGET_g, align 8
  %40 = tail call i32 (ptr, ptr, i32, i64, i64, ptr, ...) @H5E_printf_stack(ptr noundef nonnull @.str.1, ptr noundef nonnull @__func__.H5Pget_file_space_strategy, i32 noundef 1238, i64 noundef %38, i64 noundef %39, ptr noundef nonnull @.str.57) #6
  br label %.thread40

41:                                               ; preds = %34, %33
  %.not24 = icmp eq ptr %2, null
  br i1 %.not24, label %49, label %42

42:                                               ; preds = %41
  %43 = tail call i32 @H5P_get(ptr noundef nonnull %27, ptr noundef nonnull @.str.53, ptr noundef nonnull %2) #6
  %44 = icmp slt i32 %43, 0
  br i1 %44, label %45, label %49

45:                                               ; preds = %42
  %46 = load i64, ptr @H5E_PLIST_g, align 8
  %47 = load i64, ptr @H5E_CANTGET_g, align 8
  %48 = tail call i32 (ptr, ptr, i32, i64, i64, ptr, ...) @H5E_printf_stack(ptr noundef nonnull @.str.1, ptr noundef nonnull @__func__.H5Pget_file_space_strategy, i32 noundef 1241, i64 noundef %46, i64 noundef %47, ptr noundef nonnull @.str.58) #6
  br label %.thread40

49:                                               ; preds = %42, %41
  %.not25 = icmp eq ptr %3, null
  br i1 %.not25, label %58, label %50

50:                                               ; preds = %49
  %51 = tail call i32 @H5P_get(ptr noundef nonnull %27, ptr noundef nonnull @.str.55, ptr noundef nonnull %3) #6
  %52 = icmp slt i32 %51, 0
  br i1 %52, label %53, label %58

53:                                               ; preds = %50
  %54 = load i64, ptr @H5E_PLIST_g, align 8
  %55 = load i64, ptr @H5E_CANTGET_g, align 8
  %56 = tail call i32 (ptr, ptr, i32, i64, i64, ptr, ...) @H5E_printf_stack(ptr noundef nonnull @.str.1, ptr noundef nonnull @__func__.H5Pget_file_space_strategy, i32 noundef 1244, i64 noundef %54, i64 noundef %55, ptr noundef nonnull @.str.59) #6
  br label %.thread40

.thread40:                                        ; preds = %53, %45, %37, %29
  %57 = tail call i32 @H5CX_pop(i1 noundef zeroext true) #6
  br label %.thread34

58:                                               ; preds = %49, %50
  %59 = tail call i32 @H5CX_pop(i1 noundef zeroext true) #6
  br label %61

.thread34:                                        ; preds = %20, %13, %.thread40
  %60 = tail call i32 @H5E_dump_api_stack() #6
  br label %61

61:                                               ; preds = %58, %.thread34
  %.0192937 = phi i32 [ -1, %.thread34 ], [ 0, %58 ]
  ret i32 %.0192937
}